(lp0
S'https://40.media.tumblr.com/c0be1a49a06884b089bb4e3a1dfdf283/tumblr_npicq4Dig91qakp9ko1_400.jpg'
p1
aS'https://40.media.tumblr.com/4a5fee9d752ff9be8a8a4e1fbac4a6ca/tumblr_npi9dq24Ot1qzjmtno1_400.jpg'
p2
aS'https://41.media.tumblr.com/c0c67762cdf8172e1458de92c66fd6ef/tumblr_npi7ow8aSx1qzqrpyo1_400.jpg'
p3
aS'https://40.media.tumblr.com/714ca763c1e9de61cb927410518e0d3e/tumblr_npi6czNV3U1u5810eo1_400.jpg'
p4
aS'https://40.media.tumblr.com/91ccdfcf18532184bb38f04f4bb7a3db/tumblr_npeh4zGuf01r9ko9po1_400.jpg'
p5
aS'https://40.media.tumblr.com/095a58c5f8a29b4466a23111f9bba479/tumblr_npeh24rUK51r7a6aqo1_400.jpg'
p6
aS'https://40.media.tumblr.com/47b00e10a693eab2b0ccdd48eb5021cf/tumblr_npeg6ujKbj1rugrt1o1_400.jpg'
p7
aS'https://40.media.tumblr.com/37a81307770020d111356d56bc8c4fec/tumblr_npaqmnEKbS1uoeli8o1_400.jpg'
p8
aS'https://41.media.tumblr.com/f04d21a6f67422c9c807bdeb7b38e4c9/tumblr_npaspqu0xT1u5810eo1_400.jpg'
p9
aS'https://40.media.tumblr.com/3c46ef8f229dc4b458f5d7311495d62b/tumblr_npapiypNQS1qzjmtno1_400.jpg'
p10
aS'https://40.media.tumblr.com/f9c2c1f6fad5ecf0abd16b0a4b0c2056/tumblr_np64vaB9c51uoeli8o1_400.jpg'
p11
aS'https://40.media.tumblr.com/90f8e2fc8b8466bf52af103ba7f424bb/tumblr_np76plZLu61qzf9rao1_400.jpg'
p12
aS'https://40.media.tumblr.com/63a42b4a534dc4ba638e4dc393d6a9c8/tumblr_np74r3sFEa1r3vw0bo1_400.jpg'
p13
aS'https://40.media.tumblr.com/659dc6bdfec7e24baea49d92020d03b6/tumblr_np64v8L9S91uoeli8o1_400.jpg'
p14
aS'https://40.media.tumblr.com/a76ed5eebdd60bff51aad6f3f8cfddc1/tumblr_np73hpsEVC1rfvauno1_400.jpg'
p15
aS'https://40.media.tumblr.com/3aa4069e13fdfaefa385129f6cb8bafa/tumblr_np3edapfgk1u5810eo1_400.jpg'
p16
aS'https://40.media.tumblr.com/444dc13497b426c44cbcb79fb104230a/tumblr_np3ed9gSnh1u5810eo1_400.jpg'
p17
aS'https://40.media.tumblr.com/c3a71bf5efadc05be83b56119e79402b/tumblr_np1k0kHPvg1uoeli8o1_400.jpg'
p18
aS'https://40.media.tumblr.com/ba54fa49215a1703ac2654c8a1b0dcc7/tumblr_np3ds8HyUj1sgvteuo1_400.jpg'
p19
aS'https://40.media.tumblr.com/b9fad361a2c69913702ceb8642f5213e/tumblr_np3b7ofY3j1qde1zfo1_400.jpg'
p20
aS'https://40.media.tumblr.com/4acb205521dc93e4c976b81f2afa298a/tumblr_nozo9watPY1u5810eo1_400.jpg'
p21
aS'https://40.media.tumblr.com/a1c2092f3f9b6ac534d36827f824eeb7/tumblr_nozplw5hhz1r0bur8o1_400.jpg'
p22
aS'https://40.media.tumblr.com/6a925a635ba87febbe61dc75ad810913/tumblr_now4cxK7qP1saxf0xo1_400.jpg'
p23
aS'https://40.media.tumblr.com/60304d28839df1f8b0920242c403aa52/tumblr_now0k1TORz1s27ckho1_400.jpg'
p24
aS'https://40.media.tumblr.com/56df414ceb6065cd4250d465e453a5ff/tumblr_novvuqERTM1qg18qlo1_400.jpg'
p25
aS'https://40.media.tumblr.com/e9ab8d632a238ef602a12e07cfd3d34e/tumblr_nos8y0mlBH1u5810eo1_400.jpg'
p26
aS'https://40.media.tumblr.com/af99be7f7eb27f946180cdc52d502d16/tumblr_nos91neesM1us1daso1_400.jpg'
p27
aS'https://40.media.tumblr.com/da0f97bc5df1a4a1f8caf3d30dfd7e38/tumblr_nos7851bTV1r1tnuho1_400.jpg'
p28
aS'https://40.media.tumblr.com/9493bcc3ee6c0de808d1b9e27d08a071/tumblr_nos6gzekKg1u6s18io1_400.jpg'
p29
aS'https://40.media.tumblr.com/1b180fe10da010c3b1776d5b79e46708/tumblr_nonkocj8De1uoeli8o1_400.jpg'
p30
aS'https://40.media.tumblr.com/8f3198cc5621c4353043199ad3417bd7/tumblr_nooodqFC7j1uoymo5o1_400.jpg'
p31
aS'https://40.media.tumblr.com/dfd40ed684fdd60d181b273e48917a6e/tumblr_nook41ZXOA1u5810eo1_400.jpg'
p32
aS'https://40.media.tumblr.com/7b5bca77a86b596dfa27149b8271dfc5/tumblr_noolegC4Gq1qh8tsoo1_400.jpg'
p33
aS'https://40.media.tumblr.com/1770bdd4d2524d88aeedf44160c55d22/tumblr_nokv8wGiy81u5810eo1_400.jpg'
p34
aS'https://40.media.tumblr.com/11558bf4ec612881b4aabf7ef9990975/tumblr_nokv8vikCG1u5810eo1_400.jpg'
p35
aS'https://40.media.tumblr.com/42945196a440d2d494175ce3ad8a0a25/tumblr_nokvvwQ9i31uvp0l4o1_400.jpg'
p36
aS'https://40.media.tumblr.com/f3d4b57f48d354715b08fa8f8408fd79/tumblr_nokeo7mcn51uoeli8o1_400.jpg'
p37
aS'https://40.media.tumblr.com/89bc6a5765486d05ac4aac6dc53b3315/tumblr_nokv08s1qn1sec44eo1_400.jpg'
p38
aS'https://40.media.tumblr.com/e77ea20dae8703beeb18932ca3427dc3/tumblr_nokuqnlYMy1swymtpo1_400.jpg'
p39
aS'https://40.media.tumblr.com/775c0e08f16736c47fa22fba9b0112c4/tumblr_nohaz1fj3w1qg5nrjo1_400.jpg'
p40
aS'https://40.media.tumblr.com/fad2e06f6555f546bdc2b57060367cae/tumblr_nofogsDatW1uoeli8o1_400.jpg'
p41
aS'https://40.media.tumblr.com/65d3a2db7f7a42df363503ddf7f9cd89/tumblr_no00wjJGuZ1thgjnto1_400.jpg'
p42
aS'https://40.media.tumblr.com/db8f62973d10e1bbce47fe614477ddff/tumblr_noh37gQISI1s2w8k8o1_400.jpg'
p43
aS'https://40.media.tumblr.com/f114526c45c1fe2ce3237bbdd2b92cd0/tumblr_noaybhxZmk1uoeli8o1_400.jpg'
p44
aS'https://40.media.tumblr.com/2381c4d94a91b873c6d97c03499ffb0a/tumblr_nodek9HRss1s4in5yo1_400.jpg'
p45
aS'https://41.media.tumblr.com/d1d35a54394fe2a039a4206a19abd2d2/tumblr_no9w4uY8Rv1qasncxo1_400.jpg'
p46
aS'https://40.media.tumblr.com/652952d65f05cb1a743c2a7de4b54f3a/tumblr_no9qowrJQt1u5810eo1_400.jpg'
p47
aS'https://40.media.tumblr.com/408d2a457930c800a29e44e9280defc4/tumblr_no74hx5KoW1uoeli8o1_400.jpg'
p48
aS'https://40.media.tumblr.com/91c0dd46adcd0bd84b89948c230df3a9/tumblr_no9krhvERl1u5810eo1_400.jpg'
p49
aS'https://40.media.tumblr.com/9e9c0cb81d8ec646de6d61e0aa4a54e5/tumblr_no9nm6x4Sx1snilo7o1_400.jpg'
p50
aS'https://40.media.tumblr.com/ca0052bd15a053c946f6f44f776720ed/tumblr_no637dIuI31uq61k3o1_400.jpg'
p51
aS'https://40.media.tumblr.com/850a577a897b37ae853e1fe5c5649ac1/tumblr_no3dp3Vk2W1uoeli8o1_400.jpg'
p52
aS'https://40.media.tumblr.com/f47691c7aeca6cb205b98f763db76206/tumblr_no6244gsSN1sekp3xo1_400.jpg'
p53
aS'https://40.media.tumblr.com/2f8f41509078aab73b035c3f2a54e91a/tumblr_no622uyUQI1si303uo1_400.jpg'
p54
aS'https://40.media.tumblr.com/81aefafdb73971f9abf44d13be272389/tumblr_no6036ZPcB1qzjmtno1_400.jpg'
p55
aS'https://40.media.tumblr.com/55d8667fe20a2d632f6ceed333ff3d7e/tumblr_no5z0vuOi41u5810eo1_400.jpg'
p56
aS'https://40.media.tumblr.com/c004889a3b2e7976a5fb7f84d87469e5/tumblr_no5zsf2tBH1s4pq7xo1_400.jpg'
p57
aS'https://40.media.tumblr.com/ab04985d4a95c9d4f208b0ac76207160/tumblr_no2hxrjfFJ1u6s18io1_400.jpg'
p58
aS'https://40.media.tumblr.com/9a8280738e9aedb457942cd8f53b0c34/tumblr_no2fdyeKQW1utzauwo1_250.jpg'
p59
aS'https://40.media.tumblr.com/52e7f5aad853ec803c43aede67cb7eee/tumblr_no2f7p7qfO1qavmzho1_400.jpg'
p60
aS'https://40.media.tumblr.com/dca1d60302efd94ad5a4343c132a0648/tumblr_no2bchpzou1twwxmso1_400.jpg'
p61
aS'https://40.media.tumblr.com/000a460d12f98739f6b72f45d0cff152/tumblr_nnyq6lf5uM1s08g80o1_400.jpg'
p62
aS'https://40.media.tumblr.com/4476df0dcd5eafd641996a6019891f3a/tumblr_nnymnyidKy1u5810eo1_400.jpg'
p63
aS'https://40.media.tumblr.com/f604520bf62fda335bf9812c81a65495/tumblr_nnw5zmkuIo1uoeli8o1_400.jpg'
p64
aS'https://40.media.tumblr.com/ce3596234266f259a9ca4c280d660843/tumblr_nnyoklQPmn1rk6197o1_400.jpg'
p65
aS'https://40.media.tumblr.com/99f25ebd3042ab676b5c25691c372d50/tumblr_nnv1kanM441rfwrijo1_400.jpg'
p66
aS'https://40.media.tumblr.com/568d470f2f4b3712c5cf13e15981d269/tumblr_nnszduK3BJ1uoeli8o1_400.jpg'
p67
aS'https://40.media.tumblr.com/2fe2a057d4c0b7b3641af1445aa45ea8/tumblr_nnuwxb71dK1u5810eo1_400.jpg'
p68
aS'https://40.media.tumblr.com/e09765c134942ebcf914866cda8eb5c1/tumblr_nnux0bqzVx1sominio1_400.jpg'
p69
aS'https://40.media.tumblr.com/fafdcc839a22c980ceae5c5e43e98bab/tumblr_nnuwxkqKcZ1qex7iro1_400.jpg'
p70
aS'https://40.media.tumblr.com/3f67d2508e8a0eb2af6ecaeb90477802/tumblr_nnuwh8uumf1qewj6ro1_400.jpg'
p71
aS'https://40.media.tumblr.com/09f0011ecbc8005b6c4947ba0a4475c5/tumblr_nnre0tgJMT1qad4ewo1_400.jpg'
p72
aS'https://40.media.tumblr.com/14482bd61e169d382ec1e342d526d19b/tumblr_nnrdwweqaI1skst7ko1_400.png'
p73
aS'https://40.media.tumblr.com/53ced15b962fb67e3624ba9a1c4d8ea4/tumblr_nnmy7wZPMr1uoeli8o1_400.jpg'
p74
aS'https://40.media.tumblr.com/5213cd7f07151f214422cadf78f5591e/tumblr_nnr9zr3PtQ1rjt79bo1_400.jpg'
p75
aS'https://40.media.tumblr.com/5af5ddee94be5567fd55ce361e92601d/tumblr_nnib4zY7ze1uoeli8o1_400.jpg'
p76
aS'https://40.media.tumblr.com/a1510e4512cc539d36e45f62ac9e6919/tumblr_nnnkb4Pcfd1toi3slo1_400.jpg'
p77
aS'https://40.media.tumblr.com/a14a8d151d5e54bc0019382956c7f072/tumblr_nnib4yNlHo1uoeli8o1_400.jpg'
p78
aS'https://40.media.tumblr.com/f9c7363bf8e6092031ba0ad1b07bcc37/tumblr_nnngxwLUlU1u5k6rvo1_400.jpg'
p79
aS'https://40.media.tumblr.com/b69a73c2208052e26f944c61fa7b6060/tumblr_nnnfptUrXG1siq09io1_400.jpg'
p80
aS'https://40.media.tumblr.com/5bfce0580b18a1c6e5fd442795f742ad/tumblr_nnnfjdS6Wi1r2a5g0o1_400.jpg'
p81
aS'https://40.media.tumblr.com/7c1f41a8b19932195431ed731332dd40/tumblr_nni78exIP11uoeli8o1_400.jpg'
p82
aS'https://40.media.tumblr.com/c1c8eee3bed3099281f0d4240f441a59/tumblr_nnjy0yTaTz1rgkxloo1_400.jpg'
p83
aS'https://40.media.tumblr.com/2035390629e2f1294c1ef49a7c6ec8d0/tumblr_nnjvssd4ce1qzrf57o1_400.jpg'
p84
aS'https://40.media.tumblr.com/afb018940762dcf950b565aad10083b0/tumblr_nnjtbnVTNX1rk6197o1_400.jpg'
p85
aS'https://40.media.tumblr.com/52d993f2420d76756c7167468875a1b4/tumblr_nnjszqx9T11r7ozizo1_400.jpg'
p86
aS'https://40.media.tumblr.com/d1d74ad299c44caec191a490bf0ffc0b/tumblr_nnjra6fjYm1r2o6too1_400.jpg'
p87
aS'https://40.media.tumblr.com/fc15718abce00926077752a064243f69/tumblr_nng560VoY21qa1f5qo1_400.jpg'
p88
aS'https://40.media.tumblr.com/8c84e3f5e734badd60dc190dcc209cdd/tumblr_nng3utghBf1r9wamzo1_400.jpg'
p89
aS'https://40.media.tumblr.com/29e0dc87285afe3a3069c698f7b569f1/tumblr_nng0kfRJam1sqxu7io1_400.jpg'
p90
aS'https://40.media.tumblr.com/bf61fca6eb2b3cfcc61c04ce112c08c8/tumblr_nnavpbuzAE1uoeli8o1_400.jpg'
p91
aS'https://40.media.tumblr.com/9934699c92f81cda07e74272aca43afc/tumblr_nncix7ZDkK1sdrpodo1_400.jpg'
p92
aS'https://40.media.tumblr.com/d4dec05fc112283ed0011ca384065702/tumblr_nnavp9PUpt1uoeli8o1_400.jpg'
p93
aS'https://40.media.tumblr.com/b183705dd674b02a631269baf9a4b247/tumblr_nn8rqeCixS1qzrs8bo1_400.jpg'
p94
aS'https://40.media.tumblr.com/9b2f5eb2c5211f2c123f0c22a94d5de7/tumblr_nn8pfi1H0S1u9cplho1_400.jpg'
p95
aS'https://40.media.tumblr.com/d11a8d1420e4c16dacbb732da486db78/tumblr_nn8mudCRkV1s59dmko1_400.jpg'
p96
aS'https://40.media.tumblr.com/ef49cd8b952899febde3d958948660cc/tumblr_nn8mj6fpAr1sbgab4o1_400.jpg'
p97
aS'https://36.media.tumblr.com/ca9d7e8a642eb08d838758c2f8c867cf/tumblr_nn560nqFP11u9tv6xo1_400.jpg'
p98
aS'https://40.media.tumblr.com/ffa676fc2a9323432881f21a2d6f16c5/tumblr_nn51f3NYnA1une1lbo1_250.jpg'
p99
aS'https://40.media.tumblr.com/c8aaad9c1ac83607cc68d567dd20aa71/tumblr_nn50pb7jbT1rfwrijo1_400.jpg'
p100
aS'https://40.media.tumblr.com/45bee2b951ba834f84b83834b85b4717/tumblr_nn507p3Uk51rxtej6o1_400.jpg'
p101
aS'https://40.media.tumblr.com/aba54086d6cf164129a706d8476967e5/tumblr_nn4zyphD3r1u5810eo1_400.jpg'
p102
aS'https://40.media.tumblr.com/db5d5d66a494ac65ccaa44f61b0ff6c6/tumblr_nn1d61kMVe1u6s18io1_400.jpg'
p103
aS'https://40.media.tumblr.com/b235c18719630a37946cbec49633821b/tumblr_nn182mY8lV1tqoa9so1_400.jpg'
p104
aS'https://40.media.tumblr.com/19b3cdc8dd1ff1d2fcc98d96b43728ae/tumblr_nn15bxAiPv1rtmox5o1_400.jpg'
p105
aS'https://s-media-cache-ak0.pinimg.com/564x/f2/83/8d/f2838da05c940481be198672c8fbab69.jpg'
p106
aS'https://s-media-cache-ak0.pinimg.com/564x/3b/a9/a1/3ba9a19b892dfb2c4c7fb4b43d34072d.jpg'
p107
aS'https://s-media-cache-ak0.pinimg.com/564x/e0/89/f9/e089f96f6cf0c95ecd1de0f09f7db088.jpg'
p108
aS'https://s-media-cache-ak0.pinimg.com/564x/ae/0a/13/ae0a130f086aa58fcff8ffe3f667f672.jpg'
p109
aS'https://s-media-cache-ak0.pinimg.com/564x/90/68/ab/9068ab5d805779068f65ef48450dd45e.jpg'
p110
aS'https://s-media-cache-ak0.pinimg.com/564x/8a/2f/60/8a2f6000ef5032b738f4f7b55a7e7681.jpg'
p111
aS'https://s-media-cache-ak0.pinimg.com/564x/24/22/1a/24221ae6eac51a69d9a07b7a5b0b1f59.jpg'
p112
aS'https://s-media-cache-ak0.pinimg.com/564x/8d/d4/48/8dd44887e96cd40f8755ab428cc7e414.jpg'
p113
aS'https://s-media-cache-ak0.pinimg.com/564x/a6/81/4e/a6814eaae337b7dc56948ed2cf01c514.jpg'
p114
aS'https://s-media-cache-ak0.pinimg.com/564x/d7/24/59/d724593c087967faa9c337fa009d5ad4.jpg'
p115
aS'https://s-media-cache-ak0.pinimg.com/564x/2a/22/1e/2a221eecb6fb8b3cc73939d6a49a3c3f.jpg'
p116
aS'https://s-media-cache-ak0.pinimg.com/564x/83/b8/dd/83b8dd6958fce3c9b22d83ced506f325.jpg'
p117
aS'https://s-media-cache-ak0.pinimg.com/564x/df/cb/b5/dfcbb5f319e6a16b6366eca630e80b3d.jpg'
p118
aS'https://s-media-cache-ak0.pinimg.com/564x/92/a1/8d/92a18d53a71788a32b2c9ed9e3d76443.jpg'
p119
aS'https://s-media-cache-ak0.pinimg.com/564x/65/9c/9b/659c9b3a097f5ded6ec02bf4fe46ae27.jpg'
p120
aS'https://s-media-cache-ak0.pinimg.com/564x/d5/2d/20/d52d20e80174d5d6e5e45f54ab457753.jpg'
p121
aS'https://s-media-cache-ak0.pinimg.com/564x/41/37/83/413783dabc835ed593b2d7beed0fec3d.jpg'
p122
aS'https://s-media-cache-ak0.pinimg.com/564x/13/5e/12/135e123e0a49f29faaa0c9e353110424.jpg'
p123
aS'https://s-media-cache-ak0.pinimg.com/564x/3e/0f/f7/3e0ff71628d197a58753ce13619e4c74.jpg'
p124
aS'https://s-media-cache-ak0.pinimg.com/564x/ab/fc/55/abfc551304a1ff5a0878fd1b21baae09.jpg'
p125
aS'https://s-media-cache-ak0.pinimg.com/564x/f5/0a/d9/f50ad9a6d326f3440326aa856144e4df.jpg'
p126
aS'https://s-media-cache-ak0.pinimg.com/564x/e2/79/f7/e279f77c01adff6d4a104afe71f0f193.jpg'
p127
aS'https://s-media-cache-ak0.pinimg.com/564x/27/54/b2/2754b294a24286710cac477722b0acf1.jpg'
p128
aS'https://s-media-cache-ak0.pinimg.com/564x/3f/e2/70/3fe27041214b56fed6fd14ba4e45214d.jpg'
p129
aS'https://s-media-cache-ak0.pinimg.com/564x/9a/34/8f/9a348f00a07df05dbac26359f5f30b38.jpg'
p130
aS'https://s-media-cache-ak0.pinimg.com/564x/19/5f/21/195f211c95c58b40d27c100ae8b1fcb6.jpg'
p131
aS'https://s-media-cache-ak0.pinimg.com/564x/44/bc/f5/44bcf52ede4ed034723b63fd92c3f3ed.jpg'
p132
aS'https://s-media-cache-ak0.pinimg.com/564x/3d/8d/dd/3d8ddda4922414d69567f10d91908c58.jpg'
p133
aS'https://s-media-cache-ak0.pinimg.com/564x/63/16/93/631693c0006dc016cd694654b7dc489d.jpg'
p134
aS'https://s-media-cache-ak0.pinimg.com/564x/17/d3/c0/17d3c072b274cf38181296944443a866.jpg'
p135
aS'https://s-media-cache-ak0.pinimg.com/564x/1b/b4/bc/1bb4bcc6737fa98fd69af6143d50870f.jpg'
p136
aS'https://s-media-cache-ak0.pinimg.com/564x/e4/a1/0a/e4a10a1eb0eab502d159b1362fab4900.jpg'
p137
aS'https://s-media-cache-ak0.pinimg.com/564x/24/dd/5a/24dd5a0a8a7ab6c729e9adb51a717ff8.jpg'
p138
aS'https://s-media-cache-ak0.pinimg.com/564x/fb/d1/7a/fbd17a0aa4b13d3138848e63d7b5e578.jpg'
p139
aS'https://s-media-cache-ak0.pinimg.com/564x/3d/33/49/3d3349efcc27aca3fc0237b35fbbd696.jpg'
p140
aS'https://s-media-cache-ak0.pinimg.com/564x/54/1b/ae/541baee36f822337dcc141f937042edd.jpg'
p141
aS'https://s-media-cache-ak0.pinimg.com/564x/b1/0b/4d/b10b4d24365e24811e7ba8ff1e93688c.jpg'
p142
aS'https://s-media-cache-ak0.pinimg.com/564x/cd/82/e9/cd82e9aff5a3f4e02df05f9100110d14.jpg'
p143
aS'https://s-media-cache-ak0.pinimg.com/564x/48/cb/ad/48cbad81f6669927035484161d61a5f8.jpg'
p144
a.