(lp0
S'https://40.media.tumblr.com/c0be1a49a06884b089bb4e3a1dfdf283/tumblr_npicq4Dig91qakp9ko1_400.jpg'
p1
aS'https://40.media.tumblr.com/4a5fee9d752ff9be8a8a4e1fbac4a6ca/tumblr_npi9dq24Ot1qzjmtno1_400.jpg'
p2
aS'https://41.media.tumblr.com/c0c67762cdf8172e1458de92c66fd6ef/tumblr_npi7ow8aSx1qzqrpyo1_400.jpg'
p3
aS'https://40.media.tumblr.com/714ca763c1e9de61cb927410518e0d3e/tumblr_npi6czNV3U1u5810eo1_400.jpg'
p4
aS'https://40.media.tumblr.com/91ccdfcf18532184bb38f04f4bb7a3db/tumblr_npeh4zGuf01r9ko9po1_400.jpg'
p5
aS'https://40.media.tumblr.com/095a58c5f8a29b4466a23111f9bba479/tumblr_npeh24rUK51r7a6aqo1_400.jpg'
p6
aS'https://40.media.tumblr.com/47b00e10a693eab2b0ccdd48eb5021cf/tumblr_npeg6ujKbj1rugrt1o1_400.jpg'
p7
aS'https://40.media.tumblr.com/37a81307770020d111356d56bc8c4fec/tumblr_npaqmnEKbS1uoeli8o1_400.jpg'
p8
aS'https://41.media.tumblr.com/f04d21a6f67422c9c807bdeb7b38e4c9/tumblr_npaspqu0xT1u5810eo1_400.jpg'
p9
aS'https://40.media.tumblr.com/3c46ef8f229dc4b458f5d7311495d62b/tumblr_npapiypNQS1qzjmtno1_400.jpg'
p10
aS'https://40.media.tumblr.com/f9c2c1f6fad5ecf0abd16b0a4b0c2056/tumblr_np64vaB9c51uoeli8o1_400.jpg'
p11
aS'https://40.media.tumblr.com/90f8e2fc8b8466bf52af103ba7f424bb/tumblr_np76plZLu61qzf9rao1_400.jpg'
p12
aS'https://40.media.tumblr.com/63a42b4a534dc4ba638e4dc393d6a9c8/tumblr_np74r3sFEa1r3vw0bo1_400.jpg'
p13
aS'https://40.media.tumblr.com/659dc6bdfec7e24baea49d92020d03b6/tumblr_np64v8L9S91uoeli8o1_400.jpg'
p14
aS'https://40.media.tumblr.com/a76ed5eebdd60bff51aad6f3f8cfddc1/tumblr_np73hpsEVC1rfvauno1_400.jpg'
p15
aS'https://40.media.tumblr.com/3aa4069e13fdfaefa385129f6cb8bafa/tumblr_np3edapfgk1u5810eo1_400.jpg'
p16
aS'https://40.media.tumblr.com/444dc13497b426c44cbcb79fb104230a/tumblr_np3ed9gSnh1u5810eo1_400.jpg'
p17
aS'https://40.media.tumblr.com/c3a71bf5efadc05be83b56119e79402b/tumblr_np1k0kHPvg1uoeli8o1_400.jpg'
p18
aS'https://40.media.tumblr.com/ba54fa49215a1703ac2654c8a1b0dcc7/tumblr_np3ds8HyUj1sgvteuo1_400.jpg'
p19
aS'https://40.media.tumblr.com/b9fad361a2c69913702ceb8642f5213e/tumblr_np3b7ofY3j1qde1zfo1_400.jpg'
p20
aS'https://40.media.tumblr.com/4acb205521dc93e4c976b81f2afa298a/tumblr_nozo9watPY1u5810eo1_400.jpg'
p21
aS'https://40.media.tumblr.com/a1c2092f3f9b6ac534d36827f824eeb7/tumblr_nozplw5hhz1r0bur8o1_400.jpg'
p22
aS'https://40.media.tumblr.com/6a925a635ba87febbe61dc75ad810913/tumblr_now4cxK7qP1saxf0xo1_400.jpg'
p23
aS'https://40.media.tumblr.com/60304d28839df1f8b0920242c403aa52/tumblr_now0k1TORz1s27ckho1_400.jpg'
p24
aS'https://40.media.tumblr.com/56df414ceb6065cd4250d465e453a5ff/tumblr_novvuqERTM1qg18qlo1_400.jpg'
p25
aS'https://40.media.tumblr.com/e9ab8d632a238ef602a12e07cfd3d34e/tumblr_nos8y0mlBH1u5810eo1_400.jpg'
p26
aS'https://40.media.tumblr.com/af99be7f7eb27f946180cdc52d502d16/tumblr_nos91neesM1us1daso1_400.jpg'
p27
aS'https://40.media.tumblr.com/da0f97bc5df1a4a1f8caf3d30dfd7e38/tumblr_nos7851bTV1r1tnuho1_400.jpg'
p28
aS'https://40.media.tumblr.com/9493bcc3ee6c0de808d1b9e27d08a071/tumblr_nos6gzekKg1u6s18io1_400.jpg'
p29
aS'https://40.media.tumblr.com/1b180fe10da010c3b1776d5b79e46708/tumblr_nonkocj8De1uoeli8o1_400.jpg'
p30
aS'https://40.media.tumblr.com/8f3198cc5621c4353043199ad3417bd7/tumblr_nooodqFC7j1uoymo5o1_400.jpg'
p31
aS'https://40.media.tumblr.com/dfd40ed684fdd60d181b273e48917a6e/tumblr_nook41ZXOA1u5810eo1_400.jpg'
p32
aS'https://40.media.tumblr.com/7b5bca77a86b596dfa27149b8271dfc5/tumblr_noolegC4Gq1qh8tsoo1_400.jpg'
p33
aS'https://40.media.tumblr.com/1770bdd4d2524d88aeedf44160c55d22/tumblr_nokv8wGiy81u5810eo1_400.jpg'
p34
aS'https://40.media.tumblr.com/11558bf4ec612881b4aabf7ef9990975/tumblr_nokv8vikCG1u5810eo1_400.jpg'
p35
aS'https://40.media.tumblr.com/42945196a440d2d494175ce3ad8a0a25/tumblr_nokvvwQ9i31uvp0l4o1_400.jpg'
p36
aS'https://40.media.tumblr.com/f3d4b57f48d354715b08fa8f8408fd79/tumblr_nokeo7mcn51uoeli8o1_400.jpg'
p37
aS'https://40.media.tumblr.com/89bc6a5765486d05ac4aac6dc53b3315/tumblr_nokv08s1qn1sec44eo1_400.jpg'
p38
aS'https://40.media.tumblr.com/e77ea20dae8703beeb18932ca3427dc3/tumblr_nokuqnlYMy1swymtpo1_400.jpg'
p39
aS'https://40.media.tumblr.com/775c0e08f16736c47fa22fba9b0112c4/tumblr_nohaz1fj3w1qg5nrjo1_400.jpg'
p40
aS'https://40.media.tumblr.com/fad2e06f6555f546bdc2b57060367cae/tumblr_nofogsDatW1uoeli8o1_400.jpg'
p41
aS'https://40.media.tumblr.com/65d3a2db7f7a42df363503ddf7f9cd89/tumblr_no00wjJGuZ1thgjnto1_400.jpg'
p42
aS'https://40.media.tumblr.com/db8f62973d10e1bbce47fe614477ddff/tumblr_noh37gQISI1s2w8k8o1_400.jpg'
p43
aS'https://40.media.tumblr.com/f114526c45c1fe2ce3237bbdd2b92cd0/tumblr_noaybhxZmk1uoeli8o1_400.jpg'
p44
aS'https://40.media.tumblr.com/2381c4d94a91b873c6d97c03499ffb0a/tumblr_nodek9HRss1s4in5yo1_400.jpg'
p45
aS'https://41.media.tumblr.com/d1d35a54394fe2a039a4206a19abd2d2/tumblr_no9w4uY8Rv1qasncxo1_400.jpg'
p46
aS'https://40.media.tumblr.com/652952d65f05cb1a743c2a7de4b54f3a/tumblr_no9qowrJQt1u5810eo1_400.jpg'
p47
aS'https://40.media.tumblr.com/408d2a457930c800a29e44e9280defc4/tumblr_no74hx5KoW1uoeli8o1_400.jpg'
p48
aS'https://40.media.tumblr.com/91c0dd46adcd0bd84b89948c230df3a9/tumblr_no9krhvERl1u5810eo1_400.jpg'
p49
aS'https://40.media.tumblr.com/9e9c0cb81d8ec646de6d61e0aa4a54e5/tumblr_no9nm6x4Sx1snilo7o1_400.jpg'
p50
aS'https://40.media.tumblr.com/ca0052bd15a053c946f6f44f776720ed/tumblr_no637dIuI31uq61k3o1_400.jpg'
p51
aS'https://40.media.tumblr.com/850a577a897b37ae853e1fe5c5649ac1/tumblr_no3dp3Vk2W1uoeli8o1_400.jpg'
p52
aS'https://40.media.tumblr.com/f47691c7aeca6cb205b98f763db76206/tumblr_no6244gsSN1sekp3xo1_400.jpg'
p53
aS'https://40.media.tumblr.com/2f8f41509078aab73b035c3f2a54e91a/tumblr_no622uyUQI1si303uo1_400.jpg'
p54
aS'https://40.media.tumblr.com/81aefafdb73971f9abf44d13be272389/tumblr_no6036ZPcB1qzjmtno1_400.jpg'
p55
aS'https://40.media.tumblr.com/55d8667fe20a2d632f6ceed333ff3d7e/tumblr_no5z0vuOi41u5810eo1_400.jpg'
p56
aS'https://40.media.tumblr.com/c004889a3b2e7976a5fb7f84d87469e5/tumblr_no5zsf2tBH1s4pq7xo1_400.jpg'
p57
aS'https://40.media.tumblr.com/ab04985d4a95c9d4f208b0ac76207160/tumblr_no2hxrjfFJ1u6s18io1_400.jpg'
p58
aS'https://40.media.tumblr.com/9a8280738e9aedb457942cd8f53b0c34/tumblr_no2fdyeKQW1utzauwo1_250.jpg'
p59
aS'https://40.media.tumblr.com/52e7f5aad853ec803c43aede67cb7eee/tumblr_no2f7p7qfO1qavmzho1_400.jpg'
p60
aS'https://40.media.tumblr.com/dca1d60302efd94ad5a4343c132a0648/tumblr_no2bchpzou1twwxmso1_400.jpg'
p61
aS'https://40.media.tumblr.com/000a460d12f98739f6b72f45d0cff152/tumblr_nnyq6lf5uM1s08g80o1_400.jpg'
p62
aS'https://40.media.tumblr.com/4476df0dcd5eafd641996a6019891f3a/tumblr_nnymnyidKy1u5810eo1_400.jpg'
p63
aS'https://40.media.tumblr.com/f604520bf62fda335bf9812c81a65495/tumblr_nnw5zmkuIo1uoeli8o1_400.jpg'
p64
aS'https://40.media.tumblr.com/ce3596234266f259a9ca4c280d660843/tumblr_nnyoklQPmn1rk6197o1_400.jpg'
p65
aS'https://40.media.tumblr.com/99f25ebd3042ab676b5c25691c372d50/tumblr_nnv1kanM441rfwrijo1_400.jpg'
p66
aS'https://40.media.tumblr.com/568d470f2f4b3712c5cf13e15981d269/tumblr_nnszduK3BJ1uoeli8o1_400.jpg'
p67
aS'https://40.media.tumblr.com/2fe2a057d4c0b7b3641af1445aa45ea8/tumblr_nnuwxb71dK1u5810eo1_400.jpg'
p68
aS'https://40.media.tumblr.com/e09765c134942ebcf914866cda8eb5c1/tumblr_nnux0bqzVx1sominio1_400.jpg'
p69
aS'https://40.media.tumblr.com/fafdcc839a22c980ceae5c5e43e98bab/tumblr_nnuwxkqKcZ1qex7iro1_400.jpg'
p70
aS'https://40.media.tumblr.com/3f67d2508e8a0eb2af6ecaeb90477802/tumblr_nnuwh8uumf1qewj6ro1_400.jpg'
p71
aS'https://40.media.tumblr.com/09f0011ecbc8005b6c4947ba0a4475c5/tumblr_nnre0tgJMT1qad4ewo1_400.jpg'
p72
aS'https://40.media.tumblr.com/14482bd61e169d382ec1e342d526d19b/tumblr_nnrdwweqaI1skst7ko1_400.png'
p73
aS'https://40.media.tumblr.com/53ced15b962fb67e3624ba9a1c4d8ea4/tumblr_nnmy7wZPMr1uoeli8o1_400.jpg'
p74
aS'https://40.media.tumblr.com/5213cd7f07151f214422cadf78f5591e/tumblr_nnr9zr3PtQ1rjt79bo1_400.jpg'
p75
aS'https://40.media.tumblr.com/5af5ddee94be5567fd55ce361e92601d/tumblr_nnib4zY7ze1uoeli8o1_400.jpg'
p76
aS'https://40.media.tumblr.com/a1510e4512cc539d36e45f62ac9e6919/tumblr_nnnkb4Pcfd1toi3slo1_400.jpg'
p77
aS'https://40.media.tumblr.com/a14a8d151d5e54bc0019382956c7f072/tumblr_nnib4yNlHo1uoeli8o1_400.jpg'
p78
aS'https://40.media.tumblr.com/f9c7363bf8e6092031ba0ad1b07bcc37/tumblr_nnngxwLUlU1u5k6rvo1_400.jpg'
p79
aS'https://40.media.tumblr.com/b69a73c2208052e26f944c61fa7b6060/tumblr_nnnfptUrXG1siq09io1_400.jpg'
p80
aS'https://40.media.tumblr.com/5bfce0580b18a1c6e5fd442795f742ad/tumblr_nnnfjdS6Wi1r2a5g0o1_400.jpg'
p81
aS'https://40.media.tumblr.com/7c1f41a8b19932195431ed731332dd40/tumblr_nni78exIP11uoeli8o1_400.jpg'
p82
aS'https://40.media.tumblr.com/c1c8eee3bed3099281f0d4240f441a59/tumblr_nnjy0yTaTz1rgkxloo1_400.jpg'
p83
aS'https://40.media.tumblr.com/2035390629e2f1294c1ef49a7c6ec8d0/tumblr_nnjvssd4ce1qzrf57o1_400.jpg'
p84
aS'https://40.media.tumblr.com/afb018940762dcf950b565aad10083b0/tumblr_nnjtbnVTNX1rk6197o1_400.jpg'
p85
aS'https://40.media.tumblr.com/52d993f2420d76756c7167468875a1b4/tumblr_nnjszqx9T11r7ozizo1_400.jpg'
p86
aS'https://40.media.tumblr.com/d1d74ad299c44caec191a490bf0ffc0b/tumblr_nnjra6fjYm1r2o6too1_400.jpg'
p87
aS'https://40.media.tumblr.com/fc15718abce00926077752a064243f69/tumblr_nng560VoY21qa1f5qo1_400.jpg'
p88
aS'https://40.media.tumblr.com/8c84e3f5e734badd60dc190dcc209cdd/tumblr_nng3utghBf1r9wamzo1_400.jpg'
p89
aS'https://40.media.tumblr.com/29e0dc87285afe3a3069c698f7b569f1/tumblr_nng0kfRJam1sqxu7io1_400.jpg'
p90
aS'https://40.media.tumblr.com/bf61fca6eb2b3cfcc61c04ce112c08c8/tumblr_nnavpbuzAE1uoeli8o1_400.jpg'
p91
aS'https://40.media.tumblr.com/9934699c92f81cda07e74272aca43afc/tumblr_nncix7ZDkK1sdrpodo1_400.jpg'
p92
aS'https://40.media.tumblr.com/d4dec05fc112283ed0011ca384065702/tumblr_nnavp9PUpt1uoeli8o1_400.jpg'
p93
aS'https://40.media.tumblr.com/b183705dd674b02a631269baf9a4b247/tumblr_nn8rqeCixS1qzrs8bo1_400.jpg'
p94
aS'https://40.media.tumblr.com/9b2f5eb2c5211f2c123f0c22a94d5de7/tumblr_nn8pfi1H0S1u9cplho1_400.jpg'
p95
aS'https://40.media.tumblr.com/d11a8d1420e4c16dacbb732da486db78/tumblr_nn8mudCRkV1s59dmko1_400.jpg'
p96
aS'https://40.media.tumblr.com/ef49cd8b952899febde3d958948660cc/tumblr_nn8mj6fpAr1sbgab4o1_400.jpg'
p97
aS'https://36.media.tumblr.com/ca9d7e8a642eb08d838758c2f8c867cf/tumblr_nn560nqFP11u9tv6xo1_400.jpg'
p98
aS'https://40.media.tumblr.com/ffa676fc2a9323432881f21a2d6f16c5/tumblr_nn51f3NYnA1une1lbo1_250.jpg'
p99
aS'https://40.media.tumblr.com/c8aaad9c1ac83607cc68d567dd20aa71/tumblr_nn50pb7jbT1rfwrijo1_400.jpg'
p100
aS'https://40.media.tumblr.com/45bee2b951ba834f84b83834b85b4717/tumblr_nn507p3Uk51rxtej6o1_400.jpg'
p101
aS'https://40.media.tumblr.com/aba54086d6cf164129a706d8476967e5/tumblr_nn4zyphD3r1u5810eo1_400.jpg'
p102
aS'https://40.media.tumblr.com/db5d5d66a494ac65ccaa44f61b0ff6c6/tumblr_nn1d61kMVe1u6s18io1_400.jpg'
p103
aS'https://40.media.tumblr.com/b235c18719630a37946cbec49633821b/tumblr_nn182mY8lV1tqoa9so1_400.jpg'
p104
aS'https://40.media.tumblr.com/19b3cdc8dd1ff1d2fcc98d96b43728ae/tumblr_nn15bxAiPv1rtmox5o1_400.jpg'
p105
aS'https://s-media-cache-ak0.pinimg.com/564x/f2/83/8d/f2838da05c940481be198672c8fbab69.jpg'
p106
aS'https://s-media-cache-ak0.pinimg.com/564x/3b/a9/a1/3ba9a19b892dfb2c4c7fb4b43d34072d.jpg'
p107
aS'https://s-media-cache-ak0.pinimg.com/564x/e0/89/f9/e089f96f6cf0c95ecd1de0f09f7db088.jpg'
p108
aS'https://s-media-cache-ak0.pinimg.com/564x/ae/0a/13/ae0a130f086aa58fcff8ffe3f667f672.jpg'
p109
aS'https://s-media-cache-ak0.pinimg.com/564x/90/68/ab/9068ab5d805779068f65ef48450dd45e.jpg'
p110
aS'https://s-media-cache-ak0.pinimg.com/564x/8a/2f/60/8a2f6000ef5032b738f4f7b55a7e7681.jpg'
p111
aS'https://s-media-cache-ak0.pinimg.com/564x/24/22/1a/24221ae6eac51a69d9a07b7a5b0b1f59.jpg'
p112
aS'https://s-media-cache-ak0.pinimg.com/564x/8d/d4/48/8dd44887e96cd40f8755ab428cc7e414.jpg'
p113
aS'https://s-media-cache-ak0.pinimg.com/564x/a6/81/4e/a6814eaae337b7dc56948ed2cf01c514.jpg'
p114
aS'https://s-media-cache-ak0.pinimg.com/564x/d7/24/59/d724593c087967faa9c337fa009d5ad4.jpg'
p115
aS'https://s-media-cache-ak0.pinimg.com/564x/2a/22/1e/2a221eecb6fb8b3cc73939d6a49a3c3f.jpg'
p116
aS'https://s-media-cache-ak0.pinimg.com/564x/83/b8/dd/83b8dd6958fce3c9b22d83ced506f325.jpg'
p117
aS'https://s-media-cache-ak0.pinimg.com/564x/df/cb/b5/dfcbb5f319e6a16b6366eca630e80b3d.jpg'
p118
aS'https://s-media-cache-ak0.pinimg.com/564x/92/a1/8d/92a18d53a71788a32b2c9ed9e3d76443.jpg'
p119
aS'https://s-media-cache-ak0.pinimg.com/564x/65/9c/9b/659c9b3a097f5ded6ec02bf4fe46ae27.jpg'
p120
aS'https://s-media-cache-ak0.pinimg.com/564x/d5/2d/20/d52d20e80174d5d6e5e45f54ab457753.jpg'
p121
aS'https://s-media-cache-ak0.pinimg.com/564x/41/37/83/413783dabc835ed593b2d7beed0fec3d.jpg'
p122
aS'https://s-media-cache-ak0.pinimg.com/564x/13/5e/12/135e123e0a49f29faaa0c9e353110424.jpg'
p123
aS'https://s-media-cache-ak0.pinimg.com/564x/3e/0f/f7/3e0ff71628d197a58753ce13619e4c74.jpg'
p124
aS'https://s-media-cache-ak0.pinimg.com/564x/ab/fc/55/abfc551304a1ff5a0878fd1b21baae09.jpg'
p125
aS'https://s-media-cache-ak0.pinimg.com/564x/f5/0a/d9/f50ad9a6d326f3440326aa856144e4df.jpg'
p126
aS'https://s-media-cache-ak0.pinimg.com/564x/e2/79/f7/e279f77c01adff6d4a104afe71f0f193.jpg'
p127
aS'https://s-media-cache-ak0.pinimg.com/564x/27/54/b2/2754b294a24286710cac477722b0acf1.jpg'
p128
aS'https://s-media-cache-ak0.pinimg.com/564x/3f/e2/70/3fe27041214b56fed6fd14ba4e45214d.jpg'
p129
aS'https://s-media-cache-ak0.pinimg.com/564x/9a/34/8f/9a348f00a07df05dbac26359f5f30b38.jpg'
p130
aS'https://s-media-cache-ak0.pinimg.com/564x/19/5f/21/195f211c95c58b40d27c100ae8b1fcb6.jpg'
p131
aS'https://s-media-cache-ak0.pinimg.com/564x/44/bc/f5/44bcf52ede4ed034723b63fd92c3f3ed.jpg'
p132
aS'https://s-media-cache-ak0.pinimg.com/564x/3d/8d/dd/3d8ddda4922414d69567f10d91908c58.jpg'
p133
aS'https://s-media-cache-ak0.pinimg.com/564x/63/16/93/631693c0006dc016cd694654b7dc489d.jpg'
p134
aS'https://s-media-cache-ak0.pinimg.com/564x/17/d3/c0/17d3c072b274cf38181296944443a866.jpg'
p135
aS'https://s-media-cache-ak0.pinimg.com/564x/1b/b4/bc/1bb4bcc6737fa98fd69af6143d50870f.jpg'
p136
aS'https://s-media-cache-ak0.pinimg.com/564x/e4/a1/0a/e4a10a1eb0eab502d159b1362fab4900.jpg'
p137
aS'https://s-media-cache-ak0.pinimg.com/564x/24/dd/5a/24dd5a0a8a7ab6c729e9adb51a717ff8.jpg'
p138
aS'https://s-media-cache-ak0.pinimg.com/564x/fb/d1/7a/fbd17a0aa4b13d3138848e63d7b5e578.jpg'
p139
aS'https://s-media-cache-ak0.pinimg.com/564x/3d/33/49/3d3349efcc27aca3fc0237b35fbbd696.jpg'
p140
aS'https://s-media-cache-ak0.pinimg.com/564x/54/1b/ae/541baee36f822337dcc141f937042edd.jpg'
p141
aS'https://s-media-cache-ak0.pinimg.com/564x/b1/0b/4d/b10b4d24365e24811e7ba8ff1e93688c.jpg'
p142
aS'https://s-media-cache-ak0.pinimg.com/564x/cd/82/e9/cd82e9aff5a3f4e02df05f9100110d14.jpg'
p143
aS'https://s-media-cache-ak0.pinimg.com/564x/48/cb/ad/48cbad81f6669927035484161d61a5f8.jpghttps://img.buzzfeed.com/buzzfeed-static/static/2013-11/enhanced/webdr05/6/10/enhanced-buzz-6520-1383753373-41.jpg?no-auto'
p144
aS'https://img.buzzfeed.com/buzzfeed-static/static/2013-11/enhanced/webdr01/5/12/enhanced-buzz-5920-1383673696-9.jpg?no-auto'
p145
aS'https://img.buzzfeed.com/buzzfeed-static/static/2013-11/enhanced/webdr06/6/10/enhanced-buzz-31793-1383751043-9.jpg?no-auto'
p146
aS'https://img.buzzfeed.com/buzzfeed-static/static/2015-02/4/18/enhanced/webdr06/enhanced-buzz-17732-1423091627-19.jpg?no-auto'
p147
aS'https://img.buzzfeed.com/buzzfeed-static/static/2015-02/4/18/enhanced/webdr04/enhanced-30656-1423091130-1.jpg?no-auto'
p148
aS'https://img.buzzfeed.com/buzzfeed-static/static/2015-02/4/18/enhanced/webdr10/enhanced-buzz-19512-1423091517-9.jpg?no-auto'
p149
aS'https://img.buzzfeed.com/buzzfeed-static/static/2015-02/4/18/enhanced/webdr10/enhanced-buzz-19478-1423091539-6.jpg?no-auto'
p150
aS'https://img.buzzfeed.com/buzzfeed-static/static/2015-02/4/18/enhanced/webdr06/enhanced-buzz-19185-1423091555-8.jpg?no-auto'
p151
aS'https://img.buzzfeed.com/buzzfeed-static/static/2015-02/4/18/enhanced/webdr09/enhanced-buzz-28346-1423091783-9.jpg?no-auto'
p152
aS'https://img.buzzfeed.com/buzzfeed-static/static/2015-02/4/18/enhanced/webdr05/enhanced-buzz-17765-1423091740-8.jpg?no-auto'
p153
aS'https://img.buzzfeed.com/buzzfeed-static/static/enhanced/webdr06/2013/4/25/17/enhanced-buzz-22650-1366925118-6.jpg?no-auto'
p154
aS'https://img.buzzfeed.com/buzzfeed-static/static/enhanced/webdr06/2013/4/25/17/enhanced-buzz-6761-1366924086-29.jpg?no-auto'
p155
aS'https://img.buzzfeed.com/buzzfeed-static/static/enhanced/webdr06/2013/4/25/16/enhanced-buzz-31015-1366923320-14.jpg?no-auto'
p156
aS'https://img.buzzfeed.com/buzzfeed-static/static/enhanced/webdr06/2013/4/25/17/enhanced-buzz-8614-1366923719-0.jpg?no-auto'
p157
aS'https://img.buzzfeed.com/buzzfeed-static/static/enhanced/webdr06/2013/4/25/16/enhanced-buzz-29746-1366923234-21.jpg?no-auto'
p158
aS'https://img.buzzfeed.com/buzzfeed-static/static/enhanced/webdr03/2013/4/25/17/enhanced-buzz-24002-1366924020-14.jpg?no-auto'
p159
aS'https://img.buzzfeed.com/buzzfeed-static/static/enhanced/webdr02/2013/4/25/16/enhanced-buzz-31217-1366923584-2.jpg?no-auto'
p160
aS'https://img.buzzfeed.com/buzzfeed-static/static/enhanced/webdr01/2013/4/25/17/enhanced-buzz-11217-1366924916-22.jpg?no-auto'
p161
aS'https://img.buzzfeed.com/buzzfeed-static/static/enhanced/web03/2012/8/16/11/enhanced-buzz-2581-1345130980-9.jpg?no-auto'
p162
aS'https://img.buzzfeed.com/buzzfeed-static/static/enhanced/web05/2012/8/16/11/enhanced-buzz-8815-1345131091-21.jpg?no-auto'
p163
aS'https://img.buzzfeed.com/buzzfeed-static/static/enhanced/web04/2012/8/16/11/enhanced-buzz-23459-1345131111-14.jpg?no-auto'
p164
aS'https://img.buzzfeed.com/buzzfeed-static/static/enhanced/web03/2012/8/25/17/enhanced-buzz-18023-1345929907-14.jpg?no-auto'
p165
aS'https://img.buzzfeed.com/buzzfeed-static/static/enhanced/terminal05/2012/8/25/17/enhanced-buzz-932-1345929994-4.jpg?no-auto'
p166
aS'https://img.buzzfeed.com/buzzfeed-static/static/2013-11/enhanced/webdr01/5/13/enhanced-buzz-16720-1383675582-2.jpg?no-auto'
p167
aS'https://img.buzzfeed.com/buzzfeed-static/static/2013-11/enhanced/webdr06/5/13/enhanced-buzz-32401-1383676194-27.jpg?no-auto'
p168
aS'https://img.buzzfeed.com/buzzfeed-static/static/2013-11/enhanced/webdr07/5/13/enhanced-buzz-16667-1383676194-5.jpg?no-auto'
p169
aS'https://img.buzzfeed.com/buzzfeed-static/static/2013-11/enhanced/webdr06/5/13/enhanced-buzz-2452-1383675752-9.jpg?no-auto'
p170
aS'https://img.buzzfeed.com/buzzfeed-static/static/2013-11/enhanced/webdr03/5/13/enhanced-buzz-15389-1383675603-5.jpg?no-auto'
p171
aS'https://img.buzzfeed.com/buzzfeed-static/static/2013-11/enhanced/webdr01/5/14/enhanced-buzz-17459-1383679195-20.jpg?no-auto'
p172
aS'https://img.buzzfeed.com/buzzfeed-static/static/2013-11/enhanced/webdr05/5/13/enhanced-buzz-10913-1383676882-21.jpg?no-auto'
p173
aS'https://img.buzzfeed.com/buzzfeed-static/static/2013-11/enhanced/webdr05/5/13/enhanced-buzz-10918-1383677063-30.jpg?no-auto'
p174
aS'https://img.buzzfeed.com/buzzfeed-static/static/2013-11/enhanced/webdr02/5/13/enhanced-buzz-13086-1383677124-15.jpg?no-auto'
p175
aS'https://img.buzzfeed.com/buzzfeed-static/static/2013-11/enhanced/webdr03/5/13/enhanced-buzz-30206-1383677440-0.jpg?no-auto'
p176
aS'https://img.buzzfeed.com/buzzfeed-static/static/2013-11/enhanced/webdr01/5/14/enhanced-buzz-16634-1383679260-45.jpg?no-auto'
p177
aS'https://img.buzzfeed.com/buzzfeed-static/static/2013-11/enhanced/webdr03/5/13/enhanced-buzz-30146-1383677516-2.jpg?no-auto'
p178
aS'https://img.buzzfeed.com/buzzfeed-static/static/2013-11/enhanced/webdr01/5/14/enhanced-buzz-16720-1383678132-11.jpg?no-auto'
p179
aS'https://img.buzzfeed.com/buzzfeed-static/static/2013-11/enhanced/webdr02/5/14/enhanced-buzz-25052-1383678222-0.jpg?no-auto'
p180
aS'https://img.buzzfeed.com/buzzfeed-static/static/2013-11/enhanced/webdr02/5/14/enhanced-buzz-13805-1383678255-8.jpg?no-auto'
p181
ag181
aS'https://img.buzzfeed.com/buzzfeed-static/static/2013-11/enhanced/webdr05/5/14/enhanced-buzz-20216-1383678284-0.jpg?no-auto'
p182
aS'https://img.buzzfeed.com/buzzfeed-static/static/2013-11/enhanced/webdr05/5/14/enhanced-buzz-20216-1383678436-2.jpg?no-auto'
p183
aS'https://img.buzzfeed.com/buzzfeed-static/static/2013-11/enhanced/webdr05/5/14/enhanced-buzz-19352-1383678487-11.jpg?no-auto'
p184
aS'https://img.buzzfeed.com/buzzfeed-static/static/2013-11/enhanced/webdr05/5/14/enhanced-buzz-19712-1383678756-0.jpg?no-auto'
p185
aS'https://img.buzzfeed.com/buzzfeed-static/static/2013-11/enhanced/webdr01/5/14/enhanced-buzz-18154-1383678553-30.jpg?no-auto'
p186
aS'https://img.buzzfeed.com/buzzfeed-static/static/2013-11/enhanced/webdr07/5/14/enhanced-buzz-24958-1383678835-15.jpg?no-auto'
p187
aS'https://img.buzzfeed.com/buzzfeed-static/static/2013-11/enhanced/webdr07/5/14/enhanced-buzz-24299-1383679722-22.jpg?no-auto'
p188
aS'https://img.buzzfeed.com/buzzfeed-static/static/2013-11/enhanced/webdr01/5/14/enhanced-buzz-3145-1383679646-0.jpg?no-auto'
p189
aS'https://img.buzzfeed.com/buzzfeed-static/static/2013-11/enhanced/webdr05/5/14/enhanced-buzz-26614-1383678901-5.jpg?no-auto'
p190
aS'https://img.buzzfeed.com/buzzfeed-static/static/2013-11/enhanced/webdr06/5/13/enhanced-buzz-465-1383676288-12.jpg?no-auto'
p191
aS'https://img.buzzfeed.com/buzzfeed-static/static/2013-11/enhanced/webdr07/5/13/enhanced-buzz-17167-1383676388-30.jpg?no-auto'
p192
aS'https://img.buzzfeed.com/buzzfeed-static/static/2013-11/enhanced/webdr01/5/14/enhanced-buzz-18096-1383679686-60.jpg?no-auto'
p193
aS'https://img.buzzfeed.com/buzzfeed-static/static/2013-11/enhanced/webdr01/5/14/enhanced-buzz-17031-1383679313-32.jpg?no-auto'
p194
aS'https://img.buzzfeed.com/buzzfeed-static/static/2013-11/enhanced/webdr01/5/14/enhanced-buzz-3695-1383679947-11.jpg?no-auto'
p195
aS'https://img.buzzfeed.com/buzzfeed-static/static/2013-11/enhanced/webdr07/5/14/enhanced-buzz-24410-1383679544-14.jpg?no-auto'
p196
aS'https://img.buzzfeed.com/buzzfeed-static/static/2013-11/enhanced/webdr05/5/13/enhanced-buzz-10453-1383677717-43.jpg?no-auto'
p197
aS'https://img.buzzfeed.com/buzzfeed-static/static/2013-11/enhanced/webdr01/5/14/enhanced-buzz-23826-1383679345-14.jpg?no-auto'
p198
aS'https://img.buzzfeed.com/buzzfeed-static/static/2013-11/enhanced/webdr03/5/13/enhanced-buzz-15312-1383676530-13.jpg?no-auto'
p199
aS'https://img.buzzfeed.com/buzzfeed-static/static/2013-11/enhanced/webdr06/5/13/enhanced-buzz-9701-1383677347-1.jpg?no-auto'
p200
aS'https://img.buzzfeed.com/buzzfeed-static/static/2013-11/enhanced/webdr02/5/13/enhanced-buzz-25154-1383677764-0.jpg?no-auto'
p201
aS'https://img.buzzfeed.com/buzzfeed-static/static/2013-11/enhanced/webdr07/5/14/enhanced-buzz-24312-1383680440-13.jpg?no-auto'
p202
aS'https://img.buzzfeed.com/buzzfeed-static/static/2013-11/enhanced/webdr01/5/13/enhanced-buzz-16666-1383676567-2.jpg?no-auto'
p203
aS'https://img.buzzfeed.com/buzzfeed-static/static/2013-11/enhanced/webdr05/5/13/enhanced-buzz-10915-1383676920-12.jpg?no-auto'
p204
aS'https://img.buzzfeed.com/buzzfeed-static/static/enhanced/webdr05/2013/6/19/13/enhanced-buzz-3203-1371664428-9.jpg?no-auto'
p205
aS'https://img.buzzfeed.com/buzzfeed-static/static/enhanced/webdr03/2013/6/19/13/enhanced-buzz-28877-1371662338-15.jpg?no-auto'
p206
aS'https://s-media-cache-ak0.pinimg.com/564x/8f/87/97/8f87979ac192f55e9441ac51ba1ecdfd.jpg'
p207
aS'https://s-media-cache-ak0.pinimg.com/564x/c8/1f/2c/c81f2c0e78d027c43c82dcbb3575eab5.jpg'
p208
aS'https://s-media-cache-ak0.pinimg.com/564x/da/a5/26/daa5261022ae9b2a38cb9137cb7e24ab.jpg'
p209
aS'https://s-media-cache-ak0.pinimg.com/564x/2e/2f/87/2e2f87b92b2fbc8356d5f701e808a6bd.jpg'
p210
aS'https://s-media-cache-ak0.pinimg.com/564x/06/83/4a/06834a22df917090f8576c4a9274bc4b.jpg'
p211
aS'https://s-media-cache-ak0.pinimg.com/564x/a4/a0/06/a4a0063c5e1b9a64492f20d29ce16042.jpg'
p212
aS'https://s-media-cache-ak0.pinimg.com/564x/09/aa/10/09aa100bf88a0dddf887529da85d3eaf.jpg'
p213
aS'https://s-media-cache-ak0.pinimg.com/564x/97/f7/86/97f786b9bd5ca141ffe1881a8f5eb6e6.jpg'
p214
aS'https://s-media-cache-ak0.pinimg.com/564x/b6/e3/6f/b6e36ff1ae944c69aa62438dba74f2cb.jpg'
p215
aS'https://s-media-cache-ak0.pinimg.com/564x/58/6b/75/586b75b98dacb5f86965a52d49e58a68.jpg'
p216
aS'https://s-media-cache-ak0.pinimg.com/564x/f2/cc/fb/f2ccfb09effbf7d4b5e9b55f5d0e8585.jpg'
p217
aS'https://s-media-cache-ak0.pinimg.com/564x/39/f8/01/39f801499356b457dca1c7be33931a72.jpg'
p218
aS'https://s-media-cache-ak0.pinimg.com/564x/9e/e5/f6/9ee5f69ce87e0dad5f9af7945cb30108.jpg'
p219
aS'https://s-media-cache-ak0.pinimg.com/564x/b6/93/58/b6935865d45cf4fdda397abaa4191731.jpg'
p220
aS'https://s-media-cache-ak0.pinimg.com/564x/c6/8d/12/c68d1204ccc477874505d5601f3f1260.jpg'
p221
aS'https://s-media-cache-ak0.pinimg.com/564x/07/63/b1/0763b16d8eccd53328bbde49e36e05ef.jpg'
p222
aS'https://s-media-cache-ak0.pinimg.com/564x/55/1b/23/551b23148ee0f9ece87ed916ac18fbe9.jpg'
p223
aS'https://s-media-cache-ak0.pinimg.com/564x/13/07/d1/1307d12abbcbc646cbb5f7b848f0ba8b.jpg'
p224
aS'https://s-media-cache-ak0.pinimg.com/564x/e9/4f/3c/e94f3c8e95dc6e44012d45c2d3735d93.jpg'
p225
aS'https://s-media-cache-ak0.pinimg.com/564x/f3/ee/9f/f3ee9f4a89dfe95fafd7e96e49c95158.jpg'
p226
aS'https://s-media-cache-ak0.pinimg.com/564x/5e/8d/99/5e8d993e2ac830f3ff01b8b86c156128.jpg'
p227
aS'https://s-media-cache-ak0.pinimg.com/564x/66/1d/e2/661de2b00291e17b5d5380a1d1253b5c.jpg'
p228
aS'https://s-media-cache-ak0.pinimg.com/564x/6b/9f/a9/6b9fa9d5593b377d07aec9e29427f6d0.jpg'
p229
aS'https://s-media-cache-ak0.pinimg.com/564x/38/4f/ba/384fbafb3ccda1559f52a3b2e581d073.jpg'
p230
aS'https://s-media-cache-ak0.pinimg.com/564x/3e/fd/f7/3efdf73478369540f5e42fda2728791d.jpg'
p231
aS'https://s-media-cache-ak0.pinimg.com/564x/53/2e/97/532e9734aba7ab04a05ae7050f047289.jpg'
p232
aS'https://s-media-cache-ak0.pinimg.com/564x/6c/49/a1/6c49a17c345e448aefbbf92cba5fd257.jpg'
p233
ag141
aS'https://s-media-cache-ak0.pinimg.com/564x/58/a8/d0/58a8d0312ed85c7048ea438a95f1c0cd.jpg'
p234
aS'https://s-media-cache-ak0.pinimg.com/564x/ea/1c/e4/ea1ce4bbde7848b2776435f1e3aa2c8e.jpg'
p235
aS'https://s-media-cache-ak0.pinimg.com/564x/04/98/65/0498659455374a06c7db95f3a55222bd.jpg'
p236
aS'https://s-media-cache-ak0.pinimg.com/564x/59/b8/3a/59b83afa7c23c7eb83cd0769f56c0212.jpg'
p237
aS'https://s-media-cache-ak0.pinimg.com/564x/fb/f0/99/fbf099b3c5e9f84ed1191437284f790b.jpg'
p238
aS'https://s-media-cache-ak0.pinimg.com/564x/ec/df/6c/ecdf6c0055e01c5095251b5f9a716890.jpg'
p239
aS'https://s-media-cache-ak0.pinimg.com/564x/0b/bb/20/0bbb20fc252167230ec0dc7c20ee83bc.jpg'
p240
aS'https://s-media-cache-ak0.pinimg.com/564x/39/44/66/3944667c584c0c28375b71bad5ddcc79.jpg'
p241
aS'https://s-media-cache-ak0.pinimg.com/564x/12/80/57/1280577cd0326f9d2732e35834401af9.jpg'
p242
aS'https://s-media-cache-ak0.pinimg.com/564x/f0/b0/c7/f0b0c7ff6b082da6dd312c4cabcf6d99.jpg'
p243
aS'https://s-media-cache-ak0.pinimg.com/564x/03/e8/60/03e8608c5fffe5e96c55b1771562e1dd.jpg'
p244
aS'https://s-media-cache-ak0.pinimg.com/564x/92/2b/3d/922b3d165280a744bf38c1d337000529.jpg'
p245
aS'https://s-media-cache-ak0.pinimg.com/564x/7c/0f/cc/7c0fcc7a0680604dc418da324144c2b9.jpg'
p246
aS'https://s-media-cache-ak0.pinimg.com/564x/ca/1a/56/ca1a560e786999ba4c10c704d1b35acc.jpg'
p247
aS'https://s-media-cache-ak0.pinimg.com/564x/7c/1f/33/7c1f331e29ae94172d15c46d0ccb6ac0.jpg'
p248
aS'https://s-media-cache-ak0.pinimg.com/564x/4b/cc/af/4bccafe2d66b0034a601f1ef7ddd2e36.jpg'
p249
aS'https://s-media-cache-ak0.pinimg.com/564x/85/0f/7e/850f7e62a107c1b1625b898d1cbc0f5b.jpg'
p250
aS'https://s-media-cache-ak0.pinimg.com/564x/f3/84/62/f3846282942b333f739ec1f2df900012.jpg'
p251
aS'https://s-media-cache-ak0.pinimg.com/564x/d9/83/ac/d983accac804fa4e0ca6803b40d93a18.jpg'
p252
aS'https://s-media-cache-ak0.pinimg.com/564x/bc/8d/f4/bc8df4d7ba4aeb5cc5e157965d5d2fef.jpg'
p253
aS'https://s-media-cache-ak0.pinimg.com/564x/48/36/65/483665c0df4a286182b109bcfe69f47b.jpg'
p254
aS'https://s-media-cache-ak0.pinimg.com/564x/2f/3e/49/2f3e4947e745d78b2a1eb4530b5b7a4b.jpg'
p255
aS'https://s-media-cache-ak0.pinimg.com/564x/f4/0b/17/f40b179f4765dc8193b5ef0f551552fd.jpg'
p256
aS'https://s-media-cache-ak0.pinimg.com/564x/dd/c9/80/ddc980662ce14a98fb1136c96c38898c.jpg'
p257
aS'https://img.buzzfeed.com/buzzfeed-static/static/enhanced/web04/2012/4/19/16/enhanced-buzz-11025-1334867292-10.jpg?no-auto'
p258
aS'https://img.buzzfeed.com/buzzfeed-static/static/enhanced/web04/2012/4/19/16/enhanced-buzz-11387-1334866022-7.jpg?no-auto'
p259
aS'https://img.buzzfeed.com/buzzfeed-static/static/enhanced/web04/2012/4/19/17/enhanced-buzz-16970-1334869333-2.jpg?no-auto'
p260
aS'https://img.buzzfeed.com/buzzfeed-static/static/enhanced/terminal05/2012/4/19/16/enhanced-buzz-31128-1334868041-27.jpg?no-auto'
p261
aS'https://img.buzzfeed.com/buzzfeed-static/static/enhanced/web05/2012/4/19/16/enhanced-buzz-30715-1334867957-23.jpg?no-auto'
p262
aS'https://img.buzzfeed.com/buzzfeed-static/static/enhanced/web03/2012/4/19/17/enhanced-buzz-18939-1334870016-35.jpg?no-auto'
p263
aS'https://img.buzzfeed.com/buzzfeed-static/static/enhanced/web03/2012/4/19/16/enhanced-buzz-18922-1334868138-10.jpg?no-auto'
p264
aS'https://img.buzzfeed.com/buzzfeed-static/static/enhanced/web03/2012/4/19/16/enhanced-buzz-18930-1334866519-14.jpg?no-auto'
p265
aS'https://img.buzzfeed.com/buzzfeed-static/static/enhanced/terminal05/2012/4/19/17/enhanced-buzz-4336-1334870942-16.jpg?no-auto'
p266
aS'https://img.buzzfeed.com/buzzfeed-static/static/enhanced/web04/2012/4/19/17/enhanced-buzz-16970-1334870952-27.jpg?no-auto'
p267
aS'https://img.buzzfeed.com/buzzfeed-static/static/enhanced/terminal05/2012/4/19/17/enhanced-buzz-3455-1334871041-31.jpg?no-auto'
p268
aS'https://img.buzzfeed.com/buzzfeed-static/static/enhanced/web04/2012/4/19/17/enhanced-buzz-17731-1334871050-19.jpg?no-auto'
p269
aS'https://img.buzzfeed.com/buzzfeed-static/static/enhanced/web03/2012/4/19/17/enhanced-buzz-28795-1334871068-6.jpg?no-auto'
p270
aS'https://img.buzzfeed.com/buzzfeed-static/static/enhanced/web05/2012/4/19/17/enhanced-buzz-7205-1334871358-18.jpg?no-auto'
p271
aS'https://img.buzzfeed.com/buzzfeed-static/static/enhanced/web03/2012/4/19/17/enhanced-buzz-308-1334871399-2.jpg?no-auto'
p272
aS'https://img.buzzfeed.com/buzzfeed-static/static/enhanced/web04/2012/4/19/17/enhanced-buzz-16968-1334871512-18.jpg?no-auto'
p273
aS'https://img.buzzfeed.com/buzzfeed-static/static/enhanced/web03/2012/4/19/17/enhanced-buzz-690-1334871555-7.jpg?no-auto'
p274
aS'https://img.buzzfeed.com/buzzfeed-static/static/enhanced/terminal05/2012/4/19/17/enhanced-buzz-8247-1334871565-2.jpg?no-auto'
p275
aS'https://img.buzzfeed.com/buzzfeed-static/static/enhanced/web04/2012/4/19/17/enhanced-buzz-17656-1334871652-18.jpg?no-auto'
p276
aS'https://s-media-cache-ak0.pinimg.com/564x/b2/60/07/b26007585dec00014f04f7288c2737af.jpg'
p277
aS'https://s-media-cache-ak0.pinimg.com/564x/b5/3d/a2/b53da2ab1c52da4334e8f4b9fc2e657a.jpg'
p278
aS'https://s-media-cache-ak0.pinimg.com/564x/ef/56/a4/ef56a4eddc9195e61b7532a95fa45209.jpg'
p279
aS'https://s-media-cache-ak0.pinimg.com/564x/11/bd/df/11bddfe7fa577e8837ce4f2bc43925dd.jpg'
p280
aS'https://s-media-cache-ak0.pinimg.com/236x/75/c5/6f/75c56f6db49bfe8d8861ca54e85b8b94.jpg'
p281
aS'https://s-media-cache-ak0.pinimg.com/564x/56/41/66/564166da89c7373e49a82773fda697b4.jpg'
p282
aS'https://s-media-cache-ak0.pinimg.com/564x/c5/5a/c4/c55ac4a59133baa2657fa13fafa99af6.jpg'
p283
aS'https://s-media-cache-ak0.pinimg.com/564x/9a/2d/0e/9a2d0eaba7264a15eadf4e4e3c735bfa.jpg'
p284
aS'http://dobrador.com/tag/corgi/'
p285
aS'https://s-media-cache-ak0.pinimg.com/564x/91/6e/16/916e16f0edfee3ae51bf23a801f1da30.jpg'
p286
aS'https://s-media-cache-ak0.pinimg.com/564x/af/a5/0b/afa50bd56fb63940fc66800d78431976.jpg'
p287
aS'http://corgidean.tumblr.com/post/94867684298/happy-first-birthday-to-my-little-man-eddie-dean'
p288
aS'https://s-media-cache-ak0.pinimg.com/564x/98/04/c7/9804c7a9eb98b33044abcb0239893580.jpg'
p289
aS'https://s-media-cache-ak0.pinimg.com/564x/d5/3c/88/d53c88a52c24207db3b5be6bcde477c1.jpg'
p290
aS'https://s-media-cache-ak0.pinimg.com/564x/5c/c3/52/5cc352339a7fc399e3f338752c5380b2.jpg'
p291
aS'https://s-media-cache-ak0.pinimg.com/564x/21/58/48/215848ffa16631bc7debc1dca896984c.jpg'
p292
aS'https://s-media-cache-ak0.pinimg.com/564x/02/ac/a7/02aca7c76cc13c2c393030e64a647498.jpg'
p293
aS'https://s-media-cache-ak0.pinimg.com/564x/d5/7b/c3/d57bc393052ba0a8cbacaeadcbbd9fe9.jpg'
p294
aS'https://img.buzzfeed.com/buzzfeed-static/static/enhanced/webdr05/2013/7/25/11/enhanced-buzz-12134-1374765818-27.jpg?no-auto'
p295
aS'https://img.buzzfeed.com/buzzfeed-static/static/enhanced/webdr06/2013/7/25/13/enhanced-buzz-20822-1374774421-12.jpg?no-auto'
p296
aS'https://img.buzzfeed.com/buzzfeed-static/static/enhanced/webdr05/2013/7/25/13/enhanced-buzz-1150-1374774711-27.jpg?no-auto'
p297
aS'https://s-media-cache-ak0.pinimg.com/564x/cf/d5/2f/cfd52f9613c5ba2de5011dcbcf1ded31.jpg'
p298
aS'https://s-media-cache-ak0.pinimg.com/564x/7d/b6/92/7db692127fefd4871a94cb190767a08d.jpg'
p299
aS'https://s-media-cache-ak0.pinimg.com/564x/c4/a8/04/c4a804ec1885f6f118611ade46e3716b.jpg'
p300
aS'https://s-media-cache-ak0.pinimg.com/236x/89/9a/31/899a314b7a188665af30156364649902.jpg'
p301
aS'https://s-media-cache-ak0.pinimg.com/236x/dd/10/9e/dd109ed468a20de6184e5992a6d9123b.jpg'
p302
aS'https://s-media-cache-ak0.pinimg.com/564x/de/22/38/de22389910faff47b36053ba102dfd5b.jpg'
p303
aS'https://s-media-cache-ak0.pinimg.com/564x/89/23/23/89232383c19ff65d607000ed4b695d4c.jpg'
p304
a.